target datalayout = "e-m:e-p270:32:32-p271:32:32-p272:64:64-i64:64-i128:128-f80:128-n8:16:32:64-S128"
target triple = "x86_64-pc-linux-gnu"

@zueci_cp437_sb_u = internal constant [128 x i8] c"\153#\1D\1E\1B\1F!$%\22)(&\12\13\16 \14-.+204\18\19\02\03\04C5\1C',1*\17\05\0D\11L\07\10\0F\01\06\0E|}~PVkl`_m[agfeRSXWUOYhid^spjZvqrnocb\\]utTQyxz{w;\1A6>8?\0B@97:<FA=GI\09KJMN/H\08D\0CEB\0A\7F\00", align 16

; Function Attrs: nounwind uwtable
define internal i32 @zueci_cp437_u(ptr noundef %0, i32 noundef %1, i32 noundef %2, ptr noundef %3) #0 {
  %5 = alloca i32, align 4
  %6 = alloca ptr, align 8
  %7 = alloca i32, align 4
  %8 = alloca i32, align 4
  %9 = alloca ptr, align 8
  %10 = alloca i8, align 1
  store ptr %0, ptr %6, align 8
  store i32 %1, ptr %7, align 4
  store i32 %2, ptr %8, align 4
  store ptr %3, ptr %9, align 8
  %11 = load ptr, ptr %6, align 8
  %12 = load i8, ptr %11, align 1
  store i8 %12, ptr %10, align 1
  %13 = load i8, ptr %10, align 1
  %14 = zext i8 %13 to i32
  %15 = icmp slt i32 %14, 128
  br i1 %15, label %16, label %20

16:                                               ; preds = %4
  %17 = load i8, ptr %10, align 1
  %18 = zext i8 %17 to i32
  %19 = load ptr, ptr %9, align 8
  store i32 %18, ptr %19, align 4
  store i32 1, ptr %5, align 4
  br label %33

20:                                               ; preds = %4
  %21 = load i8, ptr %10, align 1
  %22 = zext i8 %21 to i32
  %23 = sub nsw i32 %22, 128
  %24 = sext i32 %23 to i64
  %25 = getelementptr inbounds [128 x i8], ptr @zueci_cp437_sb_u, i64 0, i64 %24
  %26 = load i8, ptr %25, align 1
  %27 = sext i8 %26 to i32
  %28 = sext i32 %27 to i64
  %29 = getelementptr inbounds [128 x i16], ptr @zueci_cp437_u_u, i64 0, i64 %28
  %30 = load i16, ptr %29, align 2
  %31 = zext i16 %30 to i32
  %32 = load ptr, ptr %9, align 8
  store i32 %31, ptr %32, align 4
  store i32 1, ptr %5, align 4
  br label %33

33:                                               ; preds = %20, %16
  %34 = load i32, ptr %5, align 4
  ret i32 %34
}