; Function Attrs: mustprogress nofree norecurse nosync nounwind willreturn memory(argmem: readwrite) uwtable
define internal noundef i32 @zueci_cp437_u(ptr nocapture noundef readonly %0, i32 %1, i32 %2, ptr nocapture noundef writeonly %3) #6 {
  %5 = load i8, ptr %0, align 1
  %6 = zext i8 %5 to i32
  %7 = icmp sgt i8 %5, -1
  br i1 %7, label %17, label %8

8:                                                ; preds = %4
  %9 = add nsw i32 %6, -128
  %10 = zext nneg i32 %9 to i64
  %11 = getelementptr inbounds [128 x i8], ptr @zueci_cp437_sb_u, i64 0, i64 %10
  %12 = load i8, ptr %11, align 1
  %13 = sext i8 %12 to i64
  %14 = getelementptr inbounds [128 x i16], ptr @zueci_cp437_u_u, i64 0, i64 %13
  %15 = load i16, ptr %14, align 2
  %16 = zext i16 %15 to i32
  br label %17

17:                                               ; preds = %4, %8
  %storemerge = phi i32 [ %16, %8 ], [ %6, %4 ]
  store i32 %storemerge, ptr %3, align 4
  ret i32 1
}